; Function Attrs: mustprogress uwtable
define internal noundef i32 @_ZL17luaB_getmetatableP9lua_State(ptr noundef %0) #0 {
  tail call void @_Z13luaL_checkanyP9lua_Statei(ptr noundef %0, i32 noundef 1)
  %2 = tail call noundef i32 @_Z16lua_getmetatableP9lua_Statei(ptr noundef %0, i32 noundef 1)
  %.not = icmp eq i32 %2, 0
  br i1 %.not, label %3, label %4

3:                                                ; preds = %1
  tail call void @_Z11lua_pushnilP9lua_State(ptr noundef %0)
  br label %6

4:                                                ; preds = %1
  %5 = tail call noundef i32 @_Z17luaL_getmetafieldP9lua_StateiPKc(ptr noundef %0, i32 noundef 1, ptr noundef nonnull @.str.32)
  br label %6

6:                                                ; preds = %4, %3
  ret i32 1
}